target datalayout = "e-m:e-p270:32:32-p271:32:32-p272:64:64-i64:64-i128:128-f80:128-n8:16:32:64-S128"
target triple = "x86_64-pc-linux-gnu"

%"class.nanobind::handle" = type { ptr }
%struct.Movable = type { i32 }
%class.anon.341 = type { i8 }
%"class.std::tuple" = type { %"struct.std::_Tuple_impl" }
%"struct.std::_Tuple_impl" = type { %"struct.std::_Head_base" }
%"struct.std::_Head_base" = type { %struct.Movable }

@_ZL19default_constructed = internal global i32 0, align 4
@_ZL16move_constructed = internal global i32 0, align 4
@_ZL10destructed = internal global i32 0, align 4

; Function Attrs: mustprogress nounwind optsize uwtable
define linkonce_odr hidden void @_ZN7MovableC2EOS_(ptr noundef nonnull align 4 dereferenceable(4) %0, ptr noundef nonnull align 4 dereferenceable(4) %1) unnamed_addr #2 comdat align 2 {
  %3 = alloca ptr, align 8
  %4 = alloca ptr, align 8
  store ptr %0, ptr %3, align 8, !tbaa !183
  store ptr %1, ptr %4, align 8, !tbaa !183
  %5 = load ptr, ptr %3, align 8
  %6 = getelementptr inbounds nuw %struct.Movable, ptr %5, i32 0, i32 0
  %7 = load ptr, ptr %4, align 8, !tbaa !183
  %8 = getelementptr inbounds nuw %struct.Movable, ptr %7, i32 0, i32 0
  %9 = load i32, ptr %8, align 4, !tbaa !185
  store i32 %9, ptr %6, align 4, !tbaa !185
  %10 = load ptr, ptr %4, align 8, !tbaa !183
  %11 = getelementptr inbounds nuw %struct.Movable, ptr %10, i32 0, i32 0
  store i32 0, ptr %11, align 4, !tbaa !185
  %12 = load i32, ptr @_ZL16move_constructed, align 4, !tbaa !11
  %13 = add nsw i32 %12, 1
  store i32 %13, ptr @_ZL16move_constructed, align 4, !tbaa !11
  ret void
}

; Function Attrs: mustprogress nounwind optsize uwtable
define linkonce_odr hidden void @_ZNSt10_Head_baseILm0E7MovableLb0EEC2IS0_EEOT_(ptr noundef nonnull align 4 dereferenceable(4) %0, ptr noundef nonnull align 4 dereferenceable(4) %1) unnamed_addr #2 comdat align 2 {
  %3 = alloca ptr, align 8
  %4 = alloca ptr, align 8
  store ptr %0, ptr %3, align 8, !tbaa !438
  store ptr %1, ptr %4, align 8, !tbaa !183
  %5 = load ptr, ptr %3, align 8
  %6 = getelementptr inbounds nuw %"struct.std::_Head_base", ptr %5, i32 0, i32 0
  %7 = load ptr, ptr %4, align 8, !tbaa !183
  call void @_ZN7MovableC2EOS_(ptr noundef nonnull align 4 dereferenceable(4) %6, ptr noundef nonnull align 4 dereferenceable(4) %7) #23
  ret void
}

; Function Attrs: noinline noreturn nounwind optsize uwtable
define linkonce_odr hidden void @__clang_call_terminate(ptr noundef %0) #9 comdat {
  %2 = call ptr @__cxa_begin_catch(ptr %0) #21
  call void @_ZSt9terminatev() #26
  unreachable
}

; Function Attrs: mustprogress optsize uwtable
define linkonce_odr hidden void @_ZNSt11_Tuple_implILm0EJ7MovableEEC2IS0_EEOT_(ptr noundef nonnull align 4 dereferenceable(4) %0, ptr noundef nonnull align 4 dereferenceable(4) %1) unnamed_addr #0 comdat align 2 {
  %3 = alloca ptr, align 8
  %4 = alloca ptr, align 8
  store ptr %0, ptr %3, align 8, !tbaa !440
  store ptr %1, ptr %4, align 8, !tbaa !183
  %5 = load ptr, ptr %3, align 8
  %6 = load ptr, ptr %4, align 8, !tbaa !183
  call void @_ZNSt10_Head_baseILm0E7MovableLb0EEC2IS0_EEOT_(ptr noundef nonnull align 4 dereferenceable(4) %5, ptr noundef nonnull align 4 dereferenceable(4) %6) #22
  ret void
}

; Function Attrs: mustprogress nounwind optsize uwtable
define linkonce_odr hidden void @_ZNSt5tupleIJ7MovableEEC2IJS0_ELb1ETnNSt9enable_ifIXclsr4_TCCIXT0_EEE29__is_implicitly_constructibleIDpT_EEEbE4typeELb1EEEDpOS4_(ptr noundef nonnull align 4 dereferenceable(4) %0, ptr noundef nonnull align 4 dereferenceable(4) %1) unnamed_addr #2 comdat align 2 personality ptr @__gxx_personality_v0 {
  %3 = alloca ptr, align 8
  %4 = alloca ptr, align 8
  store ptr %0, ptr %3, align 8, !tbaa !436
  store ptr %1, ptr %4, align 8, !tbaa !183
  %5 = load ptr, ptr %3, align 8
  %6 = load ptr, ptr %4, align 8, !tbaa !183
  invoke void @_ZNSt11_Tuple_implILm0EJ7MovableEEC2IS0_EEOT_(ptr noundef nonnull align 4 dereferenceable(4) %5, ptr noundef nonnull align 4 dereferenceable(4) %6) #22
          to label %7 unwind label %8

7:                                                ; preds = %2
  ret void

8:                                                ; preds = %2
  %9 = landingpad { ptr, i32 }
          catch ptr null
  %10 = extractvalue { ptr, i32 } %9, 0
  call void @__clang_call_terminate(ptr %10) #26
  unreachable
}

; Function Attrs: mustprogress nounwind optsize uwtable
define linkonce_odr hidden void @_ZN7MovableD2Ev(ptr noundef nonnull align 4 dereferenceable(4) %0) unnamed_addr #2 comdat align 2 {
  %2 = alloca ptr, align 8
  store ptr %0, ptr %2, align 8, !tbaa !183
  %3 = load i32, ptr @_ZL10destructed, align 4, !tbaa !11
  %4 = add nsw i32 %3, 1
  store i32 %4, ptr @_ZL10destructed, align 4, !tbaa !11
  ret void
}

; Function Attrs: mustprogress nounwind optsize uwtable
define linkonce_odr hidden void @_ZSt10make_tupleIJ7MovableEESt5tupleIJDpNSt25__strip_reference_wrapperINSt5decayIT_E4typeEE6__typeEEEDpOS4_(ptr dead_on_unwind noalias writable sret(%"class.std::tuple") align 4 %0, ptr noundef nonnull align 4 dereferenceable(4) %1) #2 comdat {
  %3 = alloca ptr, align 8
  %4 = alloca ptr, align 8
  store ptr %0, ptr %3, align 8
  store ptr %1, ptr %4, align 8, !tbaa !183
  %5 = load ptr, ptr %4, align 8, !tbaa !183
  call void @_ZNSt5tupleIJ7MovableEEC2IJS0_ELb1ETnNSt9enable_ifIXclsr4_TCCIXT0_EEE29__is_implicitly_constructibleIDpT_EEEbE4typeELb1EEEDpOS4_(ptr noundef nonnull align 4 dereferenceable(4) %0, ptr noundef nonnull align 4 dereferenceable(4) %5) #23
  ret void
}

; Function Attrs: mustprogress nounwind optsize uwtable
define linkonce_odr hidden void @_ZN7MovableC2Ev(ptr noundef nonnull align 4 dereferenceable(4) %0) unnamed_addr #2 comdat align 2 {
  %2 = alloca ptr, align 8
  store ptr %0, ptr %2, align 8, !tbaa !183
  %3 = load ptr, ptr %2, align 8
  %4 = getelementptr inbounds nuw %struct.Movable, ptr %3, i32 0, i32 0
  store i32 5, ptr %4, align 4, !tbaa !185
  %5 = load i32, ptr @_ZL19default_constructed, align 4, !tbaa !11
  %6 = add nsw i32 %5, 1
  store i32 %6, ptr @_ZL19default_constructed, align 4, !tbaa !11
  ret void
}

; Function Attrs: inlinehint mustprogress nounwind optsize uwtable
define linkonce_odr hidden void @_ZNSt10_Head_baseILm0E7MovableLb0EED2Ev(ptr noundef nonnull align 4 dereferenceable(4) %0) unnamed_addr #11 comdat align 2 {
  %2 = alloca ptr, align 8
  store ptr %0, ptr %2, align 8, !tbaa !438
  %3 = load ptr, ptr %2, align 8
  %4 = getelementptr inbounds nuw %"struct.std::_Head_base", ptr %3, i32 0, i32 0
  call void @_ZN7MovableD2Ev(ptr noundef nonnull align 4 dereferenceable(4) %4) #23
  ret void
}

; Function Attrs: alwaysinline mustprogress nounwind optsize uwtable
define linkonce_odr hidden noundef ptr @_ZNK8nanobind6handle3ptrEv(ptr noundef nonnull align 8 dereferenceable(8) %0) #3 comdat align 2 {
  %2 = alloca ptr, align 8
  store ptr %0, ptr %2, align 8, !tbaa !17
  %3 = load ptr, ptr %2, align 8
  %4 = getelementptr inbounds nuw %"class.nanobind::handle", ptr %3, i32 0, i32 0
  %5 = load ptr, ptr %4, align 8, !tbaa !19
  ret ptr %5
}

; Function Attrs: mustprogress nounwind optsize uwtable
define linkonce_odr hidden ptr @_ZN8nanobind6detail11type_casterISt5tupleIJ7MovableEEiE8from_cppIS4_EENS_6handleEOT_NS_9rv_policyEPNS0_12cleanup_listE(ptr noundef nonnull align 4 dereferenceable(4) %0, i32 noundef %1, ptr noundef %2) #2 comdat align 2 {
  %4 = alloca %"class.nanobind::handle", align 8
  %5 = alloca ptr, align 8
  %6 = alloca i32, align 4
  %7 = alloca ptr, align 8
  store ptr %0, ptr %5, align 8, !tbaa !436
  store i32 %1, ptr %6, align 4, !tbaa !23
  store ptr %2, ptr %7, align 8, !tbaa !167
  %8 = load ptr, ptr %5, align 8, !tbaa !436
  %9 = load i32, ptr %6, align 4, !tbaa !23
  %10 = load ptr, ptr %7, align 8, !tbaa !167
  %11 = call ptr @_ZN8nanobind6detail11type_casterISt5tupleIJ7MovableEEiE13from_cpp_implIS4_JLm0EEEENS_6handleEOT_NS_9rv_policyEPNS0_12cleanup_listESt16integer_sequenceImJXspT0_EEE(ptr noundef nonnull align 4 dereferenceable(4) %8, i32 noundef %9, ptr noundef %10) #23
  %12 = getelementptr inbounds nuw %"class.nanobind::handle", ptr %4, i32 0, i32 0
  store ptr %11, ptr %12, align 8
  %13 = getelementptr inbounds nuw %"class.nanobind::handle", ptr %4, i32 0, i32 0
  %14 = load ptr, ptr %13, align 8
  ret ptr %14
}

; Function Attrs: inlinehint mustprogress optsize uwtable
define internal void @"_ZZL26nanobind_init_test_stl_extRN8nanobind7module_EENK4$_15clEv"(ptr dead_on_unwind noalias writable sret(%"class.std::tuple") align 4 %0, ptr noundef nonnull align 1 dereferenceable(1) %1) #10 align 2 personality ptr @__gxx_personality_v0 {
  %3 = alloca ptr, align 8
  %4 = alloca ptr, align 8
  %5 = alloca %struct.Movable, align 4
  %6 = alloca ptr, align 8
  %7 = alloca i32, align 4
  store ptr %0, ptr %3, align 8
  store ptr %1, ptr %4, align 8, !tbaa !8
  call void @llvm.lifetime.start.p0(i64 4, ptr %5) #21
  call void @_ZN7MovableC2Ev(ptr noundef nonnull align 4 dereferenceable(4) %5) #22
  invoke void @_ZSt10make_tupleIJ7MovableEESt5tupleIJDpNSt25__strip_reference_wrapperINSt5decayIT_E4typeEE6__typeEEEDpOS4_(ptr dead_on_unwind writable sret(%"class.std::tuple") align 4 %0, ptr noundef nonnull align 4 dereferenceable(4) %5) #22
          to label %8 unwind label %9

8:                                                ; preds = %2
  call void @_ZN7MovableD2Ev(ptr noundef nonnull align 4 dereferenceable(4) %5) #23
  call void @llvm.lifetime.end.p0(i64 4, ptr %5) #21
  ret void

9:                                                ; preds = %2
  %10 = landingpad { ptr, i32 }
          cleanup
  %11 = extractvalue { ptr, i32 } %10, 0
  store ptr %11, ptr %6, align 8
  %12 = extractvalue { ptr, i32 } %10, 1
  store i32 %12, ptr %7, align 4
  call void @_ZN7MovableD2Ev(ptr noundef nonnull align 4 dereferenceable(4) %5) #23
  call void @llvm.lifetime.end.p0(i64 4, ptr %5) #21
  br label %13

13:                                               ; preds = %9
  %14 = load ptr, ptr %6, align 8
  %15 = load i32, ptr %7, align 4
  %16 = insertvalue { ptr, i32 } poison, ptr %14, 0
  %17 = insertvalue { ptr, i32 } %16, i32 %15, 1
  resume { ptr, i32 } %17
}

; Function Attrs: alwaysinline mustprogress optsize uwtable
define internal noundef ptr @"_ZZN8nanobind6detail11func_createILb0ELb1EZL26nanobind_init_test_stl_extRNS_7module_EE4$_15St5tupleIJ7MovableEEJETpTnmJEJNS_5scopeENS_4nameEEEEP7_objectOT1_PFT2_DpT3_ESt16integer_sequenceImJXspT4_EEEDpRKT5_ENKUlPvPSB_PhNS_9rv_policyEPNS0_12cleanup_listEE_clESP_SQ_SR_SS_SU_"(ptr noundef nonnull align 1 dereferenceable(1) %0, ptr noundef %1, ptr noundef %2, ptr noundef %3, i32 noundef %4, ptr noundef %5) #7 align 2 {
  %7 = alloca ptr, align 8
  %8 = alloca ptr, align 8
  %9 = alloca ptr, align 8
  %10 = alloca ptr, align 8
  %11 = alloca i32, align 4
  %12 = alloca ptr, align 8
  %13 = alloca ptr, align 8
  %14 = alloca ptr, align 8
  %15 = alloca %"class.nanobind::handle", align 8
  %16 = alloca %"class.std::tuple", align 4
  store ptr %0, ptr %7, align 8, !tbaa !8
  store ptr %1, ptr %8, align 8, !tbaa !8
  store ptr %2, ptr %9, align 8, !tbaa !165
  store ptr %3, ptr %10, align 8, !tbaa !34
  store i32 %4, ptr %11, align 4, !tbaa !23
  store ptr %5, ptr %12, align 8, !tbaa !167
  call void @llvm.lifetime.start.p0(i64 8, ptr %13) #21
  %17 = load ptr, ptr %8, align 8, !tbaa !8
  store ptr %17, ptr %13, align 8, !tbaa !432
  call void @llvm.lifetime.start.p0(i64 8, ptr %14) #21
  call void @llvm.lifetime.start.p0(i64 8, ptr %15) #21
  call void @llvm.lifetime.start.p0(i64 4, ptr %16) #21
  %18 = load ptr, ptr %13, align 8, !tbaa !432
  call void @"_ZZL26nanobind_init_test_stl_extRN8nanobind7module_EENK4$_15clEv"(ptr dead_on_unwind writable sret(%"class.std::tuple") align 4 %16, ptr noundef nonnull align 1 dereferenceable(1) %18) #22
  %19 = load i32, ptr %11, align 4, !tbaa !23
  %20 = load ptr, ptr %12, align 8, !tbaa !167
  %21 = call ptr @_ZN8nanobind6detail11type_casterISt5tupleIJ7MovableEEiE8from_cppIS4_EENS_6handleEOT_NS_9rv_policyEPNS0_12cleanup_listE(ptr noundef nonnull align 4 dereferenceable(4) %16, i32 noundef %19, ptr noundef %20) #23
  %22 = getelementptr inbounds nuw %"class.nanobind::handle", ptr %15, i32 0, i32 0
  store ptr %21, ptr %22, align 8
  %23 = call noundef ptr @_ZNK8nanobind6handle3ptrEv(ptr noundef nonnull align 8 dereferenceable(8) %15) #22
  store ptr %23, ptr %14, align 8, !tbaa !3
  call void @_ZNSt10_Head_baseILm0E7MovableLb0EED2Ev(ptr noundef nonnull align 4 dereferenceable(4) %16) #23
  call void @llvm.lifetime.end.p0(i64 4, ptr %16) #21
  call void @llvm.lifetime.end.p0(i64 8, ptr %15) #21
  %24 = load ptr, ptr %14, align 8, !tbaa !3
  call void @llvm.lifetime.end.p0(i64 8, ptr %14) #21
  call void @llvm.lifetime.end.p0(i64 8, ptr %13) #21
  ret ptr %24
}

; Function Attrs: inlinehint mustprogress optsize uwtable
define internal noundef ptr @"_ZZN8nanobind6detail11func_createILb0ELb1EZL26nanobind_init_test_stl_extRNS_7module_EE4$_15St5tupleIJ7MovableEEJETpTnmJEJNS_5scopeENS_4nameEEEEP7_objectOT1_PFT2_DpT3_ESt16integer_sequenceImJXspT4_EEEDpRKT5_ENUlPvPSB_PhNS_9rv_policyEPNS0_12cleanup_listEE_8__invokeESP_SQ_SR_SS_SU_"(ptr noundef %0, ptr noundef %1, ptr noundef %2, i32 noundef %3, ptr noundef %4) #10 align 2 {
  %6 = alloca ptr, align 8
  %7 = alloca ptr, align 8
  %8 = alloca ptr, align 8
  %9 = alloca i32, align 4
  %10 = alloca ptr, align 8
  %11 = alloca %class.anon.341, align 1
  store ptr %0, ptr %6, align 8, !tbaa !8
  store ptr %1, ptr %7, align 8, !tbaa !165
  store ptr %2, ptr %8, align 8, !tbaa !34
  store i32 %3, ptr %9, align 4, !tbaa !23
  store ptr %4, ptr %10, align 8, !tbaa !167
  %12 = load ptr, ptr %6, align 8, !tbaa !8
  %13 = load ptr, ptr %7, align 8, !tbaa !165
  %14 = load ptr, ptr %8, align 8, !tbaa !34
  %15 = load i32, ptr %9, align 4, !tbaa !23
  %16 = load ptr, ptr %10, align 8, !tbaa !167
  %17 = call noundef ptr @"_ZZN8nanobind6detail11func_createILb0ELb1EZL26nanobind_init_test_stl_extRNS_7module_EE4$_15St5tupleIJ7MovableEEJETpTnmJEJNS_5scopeENS_4nameEEEEP7_objectOT1_PFT2_DpT3_ESt16integer_sequenceImJXspT4_EEEDpRKT5_ENKUlPvPSB_PhNS_9rv_policyEPNS0_12cleanup_listEE_clESP_SQ_SR_SS_SU_"(ptr noundef nonnull align 1 dereferenceable(1) %11, ptr noundef %12, ptr noundef %13, ptr noundef %14, i32 noundef %15, ptr noundef %16) #22
  ret ptr %17
}