; Function Attrs: inlinehint mustprogress nounwind optsize uwtable
define internal noundef ptr @"_ZZN8nanobind6detail11func_createILb0ELb1EZL26nanobind_init_test_stl_extRNS_7module_EE4$_15St5tupleIJ7MovableEEJETpTnmJEJNS_5scopeENS_4nameEEEEP7_objectOT1_PFT2_DpT3_ESt16integer_sequenceImJXspT4_EEEDpRKT5_ENUlPvPSB_PhNS_9rv_policyEPNS0_12cleanup_listEE_8__invokeESP_SQ_SR_SS_SU_"(ptr readnone captures(none) %0, ptr readnone captures(none) %1, ptr readnone captures(none) %2, i32 noundef %3, ptr noundef %4) #18 align 2 personality ptr @__gxx_personality_v0 {
  %6 = alloca %"class.std::tuple", align 4
  call void @llvm.lifetime.start.p0(i64 4, ptr nonnull %6) #28
  tail call void @llvm.experimental.noalias.scope.decl(metadata !205)
  %7 = load i32, ptr @_ZL19default_constructed, align 4, !tbaa !128, !noalias !205
  %8 = add nsw i32 %7, 1
  store i32 %8, ptr @_ZL19default_constructed, align 4, !tbaa !128, !noalias !205
  tail call void @llvm.experimental.noalias.scope.decl(metadata !208)
  store i32 5, ptr %6, align 4, !tbaa !129, !alias.scope !211
  %9 = load i32, ptr @_ZL16move_constructed, align 4, !tbaa !128, !noalias !211
  %10 = add nsw i32 %9, 1
  store i32 %10, ptr @_ZL16move_constructed, align 4, !tbaa !128, !noalias !211
  %11 = load i32, ptr @_ZL10destructed, align 4, !tbaa !128, !noalias !205
  %12 = add nsw i32 %11, 1
  store i32 %12, ptr @_ZL10destructed, align 4, !tbaa !128, !noalias !205
  %13 = call ptr @_ZN8nanobind6detail11type_casterISt5tupleIJ7MovableEEiE13from_cpp_implIS4_JLm0EEEENS_6handleEOT_NS_9rv_policyEPNS0_12cleanup_listESt16integer_sequenceImJXspT0_EEE(ptr noundef nonnull align 4 dereferenceable(4) %6, i32 noundef %3, ptr noundef %4) #27
  %14 = load i32, ptr @_ZL10destructed, align 4, !tbaa !128
  %15 = add nsw i32 %14, 1
  store i32 %15, ptr @_ZL10destructed, align 4, !tbaa !128
  call void @llvm.lifetime.end.p0(i64 4, ptr nonnull %6) #28
  ret ptr %13
}